; Function Attrs: mustprogress nofree norecurse nosync nounwind willreturn memory(argmem: readwrite) uwtable
define noundef i32 @grpc_byte_buffer_reader_init(ptr noundef writeonly captures(none) initializes((0, 8)) %0, ptr noundef %1) local_unnamed_addr #3 {
  store ptr %1, ptr %0, align 8, !tbaa !3
  %3 = getelementptr inbounds nuw i8, ptr %1, i64 8
  %4 = load i32, ptr %3, align 8, !tbaa !9
  %cond = icmp eq i32 %4, 0
  br i1 %cond, label %5, label %8

5:                                                ; preds = %2
  %6 = getelementptr inbounds nuw i8, ptr %0, i64 8
  store ptr %1, ptr %6, align 8, !tbaa !12
  %7 = getelementptr inbounds nuw i8, ptr %0, i64 16
  store i32 0, ptr %7, align 8, !tbaa !13
  br label %8

8:                                                ; preds = %2, %5
  ret i32 1
}